; Function Attrs: nofree norecurse nosync nounwind memory(read, argmem: readwrite, inaccessiblemem: none) uwtable
define range(i32 0, 2) i32 @nk_strmatch_fuzzy_string(ptr noundef captures(address) %0, ptr noundef captures(address) %1, ptr noundef captures(address_is_null) %2) local_unnamed_addr #9 {
  %.not5.i = icmp eq ptr %0, null
  br i1 %.not5.i, label %nk_strlen.exit, label %.lr.ph.i.preheader

.lr.ph.i.preheader:                               ; preds = %3
  %4 = load i8, ptr %0, align 1, !tbaa !9
  %.not4.i4 = icmp eq i8 %4, 0
  br i1 %.not4.i4, label %nk_strlen.exit, label %.lr.ph.i

.lr.ph.i:                                         ; preds = %.lr.ph.i.preheader, %.lr.ph.i
  %.036.i6 = phi ptr [ %5, %.lr.ph.i ], [ %0, %.lr.ph.i.preheader ]
  %.07.i5 = phi i32 [ %6, %.lr.ph.i ], [ 0, %.lr.ph.i.preheader ]
  %5 = getelementptr inbounds nuw i8, ptr %.036.i6, i64 1
  %6 = add nuw nsw i32 %.07.i5, 1
  %7 = load i8, ptr %5, align 1, !tbaa !9
  %.not4.i = icmp eq i8 %7, 0
  br i1 %.not4.i, label %nk_strlen.exit, label %.lr.ph.i

nk_strlen.exit:                                   ; preds = %.lr.ph.i, %.lr.ph.i.preheader, %3
  %.0.lcssa.i = phi i32 [ 0, %3 ], [ 0, %.lr.ph.i.preheader ], [ %6, %.lr.ph.i ]
  %8 = tail call i32 @nk_strmatch_fuzzy_text(ptr noundef %0, i32 noundef %.0.lcssa.i, ptr noundef %1, ptr noundef %2)
  ret i32 %8
}